target datalayout = "e-m:e-p270:32:32-p271:32:32-p272:64:64-i64:64-i128:128-f80:128-n8:16:32:64-S128"
target triple = "x86_64-pc-linux-gnu"

%struct.H5FL_reg_head_t = type { i8, i32, i32, ptr, i64, ptr }
%struct.H5HF_block_iter_t = type { i8, ptr }
%struct.H5HF_hdr_t = type { %struct.H5C_cache_entry_t, i32, i32, i8, i8, i8, i8, %struct.H5HF_dtable_t, i64, i64, i32, i64, i64, %struct.H5O_pline_t, i64, i32, i64, i64, i64, i64, i64, i64, i64, i64, i64, i64, i64, i32, ptr, i64, i8, i8, i8, ptr, i32, ptr, %struct.H5HF_block_iter_t, ptr, i64, i8, i8, i64, i8, i8, i8, i8 }
%struct.H5C_cache_entry_t = type { ptr, i64, i64, ptr, i8, ptr, i8, i8, i8, i8, i32, i8, i8, i8, i8, i8, i32, ptr, i32, i32, i32, i32, i32, i8, i8, ptr, ptr, ptr, ptr, ptr, ptr, i8, i32, i8, i64, ptr, i64, i64, i32, i8, i32, i32, i8, ptr, ptr, ptr }
%struct.H5HF_dtable_t = type { %struct.H5HF_dtable_cparam_t, i64, i32, i32, i32, i32, i32, i32, i32, i64, ptr, ptr, ptr, ptr }
%struct.H5HF_dtable_cparam_t = type { i32, i64, i64, i32, i32 }
%struct.H5O_pline_t = type { %struct.H5O_shared_t, i32, i64, i64, ptr }
%struct.H5O_shared_t = type { i32, ptr, i32, %union.anon }
%union.anon = type { %struct.H5O_mesg_loc_t }
%struct.H5O_mesg_loc_t = type { i32, i64 }
%struct.H5HF_block_loc_t = type { i32, i32, i32, ptr, ptr }

@H5_H5HF_block_loc_t_reg_free_list = internal global %struct.H5FL_reg_head_t { i8 0, i32 0, i32 0, ptr @.str.6, i64 32, ptr null }, align 8
@.str = private unnamed_addr constant [102 x i8] c"generated/home/dtcxzyw/WorkSpace/Projects/compilers/llvm-opt-benchmark/bench/hdf5/hdf5/src/H5HFiter.c\00", align 1
@H5E_RESOURCE_g = external global i64, align 8
@H5E_NOSPACE_g = external global i64, align 8
@.str.1 = private unnamed_addr constant [60 x i8] c"memory allocation failed for direct block free list section\00", align 1
@H5E_HEAP_g = external global i64, align 8
@H5E_CANTINC_g = external global i64, align 8
@.str.3 = private unnamed_addr constant [57 x i8] c"can't increment reference count on shared indirect block\00", align 1
@__func__.H5HF__man_iter_start_entry = private unnamed_addr constant [27 x i8] c"H5HF__man_iter_start_entry\00", align 1

; Function Attrs: nounwind uwtable
define i32 @H5HF__man_iter_start_entry(ptr noundef %0, ptr noundef %1, ptr noundef %2, i32 noundef %3) #0 {
  %5 = alloca ptr, align 8
  %6 = alloca ptr, align 8
  %7 = alloca ptr, align 8
  %8 = alloca i32, align 4
  %9 = alloca ptr, align 8
  %10 = alloca i32, align 4
  %11 = alloca i8, align 1
  store ptr %0, ptr %5, align 8
  store ptr %1, ptr %6, align 8
  store ptr %2, ptr %7, align 8
  store i32 %3, ptr %8, align 4
  store ptr null, ptr %9, align 8
  store i32 0, ptr %10, align 4
  store i8 0, ptr %11, align 1
  %12 = call noalias ptr @H5FL_reg_malloc(ptr noundef @H5_H5HF_block_loc_t_reg_free_list)
  store ptr %12, ptr %9, align 8
  %13 = icmp eq ptr null, %12
  br i1 %13, label %14, label %29

14:                                               ; preds = %4
  br label %15

15:                                               ; preds = %14
  br label %16

16:                                               ; preds = %15
  br label %17

17:                                               ; preds = %16
  %18 = load i64, ptr @H5E_RESOURCE_g, align 8
  %19 = load i64, ptr @H5E_NOSPACE_g, align 8
  %20 = call i32 (ptr, ptr, i32, i64, i64, ptr, ...) @H5E_printf_stack(ptr noundef @.str, ptr noundef @__func__.H5HF__man_iter_start_entry, i32 noundef 308, i64 noundef %18, i64 noundef %19, ptr noundef @.str.1)
  br label %21

21:                                               ; preds = %17
  store i8 1, ptr %11, align 1
  %22 = load i8, ptr %11, align 1
  %23 = trunc i8 %22 to i1
  %24 = zext i1 %23 to i8
  store i8 %24, ptr %11, align 1
  br label %25

25:                                               ; preds = %21
  br label %26

26:                                               ; preds = %25
  store i32 -1, ptr %10, align 4
  br label %82

27:                                               ; No predecessors!
  br label %28

28:                                               ; preds = %27
  br label %29

29:                                               ; preds = %28, %4
  %30 = load i32, ptr %8, align 4
  %31 = load ptr, ptr %9, align 8
  %32 = getelementptr inbounds %struct.H5HF_block_loc_t, ptr %31, i32 0, i32 2
  store i32 %30, ptr %32, align 8
  %33 = load i32, ptr %8, align 4
  %34 = load ptr, ptr %5, align 8
  %35 = getelementptr inbounds %struct.H5HF_hdr_t, ptr %34, i32 0, i32 7
  %36 = getelementptr inbounds %struct.H5HF_dtable_t, ptr %35, i32 0, i32 0
  %37 = getelementptr inbounds %struct.H5HF_dtable_cparam_t, ptr %36, i32 0, i32 0
  %38 = load i32, ptr %37, align 8
  %39 = udiv i32 %33, %38
  %40 = load ptr, ptr %9, align 8
  %41 = getelementptr inbounds %struct.H5HF_block_loc_t, ptr %40, i32 0, i32 0
  store i32 %39, ptr %41, align 8
  %42 = load i32, ptr %8, align 4
  %43 = load ptr, ptr %5, align 8
  %44 = getelementptr inbounds %struct.H5HF_hdr_t, ptr %43, i32 0, i32 7
  %45 = getelementptr inbounds %struct.H5HF_dtable_t, ptr %44, i32 0, i32 0
  %46 = getelementptr inbounds %struct.H5HF_dtable_cparam_t, ptr %45, i32 0, i32 0
  %47 = load i32, ptr %46, align 8
  %48 = urem i32 %42, %47
  %49 = load ptr, ptr %9, align 8
  %50 = getelementptr inbounds %struct.H5HF_block_loc_t, ptr %49, i32 0, i32 1
  store i32 %48, ptr %50, align 4
  %51 = load ptr, ptr %7, align 8
  %52 = load ptr, ptr %9, align 8
  %53 = getelementptr inbounds %struct.H5HF_block_loc_t, ptr %52, i32 0, i32 3
  store ptr %51, ptr %53, align 8
  %54 = load ptr, ptr %9, align 8
  %55 = getelementptr inbounds %struct.H5HF_block_loc_t, ptr %54, i32 0, i32 4
  store ptr null, ptr %55, align 8
  %56 = load ptr, ptr %9, align 8
  %57 = getelementptr inbounds %struct.H5HF_block_loc_t, ptr %56, i32 0, i32 3
  %58 = load ptr, ptr %57, align 8
  %59 = call i32 @H5HF__iblock_incr(ptr noundef %58)
  %60 = icmp slt i32 %59, 0
  br i1 %60, label %61, label %76

61:                                               ; preds = %29
  br label %62

62:                                               ; preds = %61
  br label %63

63:                                               ; preds = %62
  br label %64

64:                                               ; preds = %63
  %65 = load i64, ptr @H5E_HEAP_g, align 8
  %66 = load i64, ptr @H5E_CANTINC_g, align 8
  %67 = call i32 (ptr, ptr, i32, i64, i64, ptr, ...) @H5E_printf_stack(ptr noundef @.str, ptr noundef @__func__.H5HF__man_iter_start_entry, i32 noundef 319, i64 noundef %65, i64 noundef %66, ptr noundef @.str.3)
  br label %68

68:                                               ; preds = %64
  store i8 1, ptr %11, align 1
  %69 = load i8, ptr %11, align 1
  %70 = trunc i8 %69 to i1
  %71 = zext i1 %70 to i8
  store i8 %71, ptr %11, align 1
  br label %72

72:                                               ; preds = %68
  br label %73

73:                                               ; preds = %72
  store i32 -1, ptr %10, align 4
  br label %82

74:                                               ; No predecessors!
  br label %75

75:                                               ; preds = %74
  br label %76

76:                                               ; preds = %75, %29
  %77 = load ptr, ptr %9, align 8
  %78 = load ptr, ptr %6, align 8
  %79 = getelementptr inbounds %struct.H5HF_block_iter_t, ptr %78, i32 0, i32 1
  store ptr %77, ptr %79, align 8
  %80 = load ptr, ptr %6, align 8
  %81 = getelementptr inbounds %struct.H5HF_block_iter_t, ptr %80, i32 0, i32 0
  store i8 1, ptr %81, align 8
  br label %82

82:                                               ; preds = %76, %73, %26
  %83 = load i32, ptr %10, align 4
  %84 = icmp slt i32 %83, 0
  br i1 %84, label %85, label %91

85:                                               ; preds = %82
  %86 = load ptr, ptr %9, align 8
  %87 = icmp ne ptr %86, null
  br i1 %87, label %88, label %91

88:                                               ; preds = %85
  %89 = load ptr, ptr %9, align 8
  %90 = call ptr @H5FL_reg_free(ptr noundef @H5_H5HF_block_loc_t_reg_free_list, ptr noundef %89)
  store ptr %90, ptr %9, align 8
  br label %91

91:                                               ; preds = %88, %85, %82
  %92 = load i32, ptr %10, align 4
  ret i32 %92
}