; Function Attrs: nounwind uwtable
define range(i32 -1, 1) i32 @H5HF__man_iter_start_entry(ptr nocapture noundef readonly %0, ptr nocapture noundef writeonly %1, ptr noundef %2, i32 noundef %3) local_unnamed_addr #2 {
  %5 = tail call noalias ptr @H5FL_reg_malloc(ptr noundef nonnull @H5_H5HF_block_loc_t_reg_free_list) #8
  %6 = icmp eq ptr %5, null
  br i1 %6, label %7, label %11

7:                                                ; preds = %4
  %8 = load i64, ptr @H5E_RESOURCE_g, align 8
  %9 = load i64, ptr @H5E_NOSPACE_g, align 8
  %10 = tail call i32 (ptr, ptr, i32, i64, i64, ptr, ...) @H5E_printf_stack(ptr noundef nonnull @.str, ptr noundef nonnull @__func__.H5HF__man_iter_start_entry, i32 noundef 308, i64 noundef %8, i64 noundef %9, ptr noundef nonnull @.str.1) #8
  br label %.thread

11:                                               ; preds = %4
  %12 = getelementptr inbounds i8, ptr %5, i64 8
  store i32 %3, ptr %12, align 8
  %13 = getelementptr inbounds i8, ptr %0, i64 264
  %14 = load i32, ptr %13, align 8
  %15 = udiv i32 %3, %14
  store i32 %15, ptr %5, align 8
  %16 = urem i32 %3, %14
  %17 = getelementptr inbounds i8, ptr %5, i64 4
  store i32 %16, ptr %17, align 4
  %18 = getelementptr inbounds i8, ptr %5, i64 16
  store ptr %2, ptr %18, align 8
  %19 = getelementptr inbounds i8, ptr %5, i64 24
  store ptr null, ptr %19, align 8
  %20 = tail call i32 @H5HF__iblock_incr(ptr noundef %2) #8
  %21 = icmp slt i32 %20, 0
  br i1 %21, label %24, label %22

22:                                               ; preds = %11
  %23 = getelementptr inbounds i8, ptr %1, i64 8
  store ptr %5, ptr %23, align 8
  store i8 1, ptr %1, align 8
  br label %.thread

24:                                               ; preds = %11
  %25 = load i64, ptr @H5E_HEAP_g, align 8
  %26 = load i64, ptr @H5E_CANTINC_g, align 8
  %27 = tail call i32 (ptr, ptr, i32, i64, i64, ptr, ...) @H5E_printf_stack(ptr noundef nonnull @.str, ptr noundef nonnull @__func__.H5HF__man_iter_start_entry, i32 noundef 319, i64 noundef %25, i64 noundef %26, ptr noundef nonnull @.str.3) #8
  %28 = tail call ptr @H5FL_reg_free(ptr noundef nonnull @H5_H5HF_block_loc_t_reg_free_list, ptr noundef nonnull %5) #8
  br label %.thread

.thread:                                          ; preds = %7, %22, %24
  %.024 = phi i32 [ -1, %24 ], [ 0, %22 ], [ -1, %7 ]
  ret i32 %.024
}